target datalayout = "e-m:e-p270:32:32-p271:32:32-p272:64:64-i64:64-i128:128-f80:128-n8:16:32:64-S128"
target triple = "x86_64-pc-linux-gnu"

%struct._packet_info = type { ptr, ptr, i32, i32, %struct.nstime_t, %struct.nstime_t, %struct.nstime_t, i8, ptr, ptr, ptr, ptr, %struct._address, %struct._address, %struct._address, %struct._address, %struct._address, %struct._address, i32, ptr, i8, [3 x i8], %struct.anon, i32, i32, i32, i32, ptr, i8, ptr, ptr, i16, i16, i32, i32, i16, i32, i32, ptr, ptr, ptr, i8, i8, i16, i16, i16, i32, i16, i16, ptr, ptr, ptr, ptr, ptr, i32, i32 }
%struct.nstime_t = type { i64, i32 }
%struct._address = type { i32, i32, ptr, ptr }
%struct.anon = type { i8, [3 x i8] }

@hf_bencoded_int = internal global i32 0, align 4
@hf_bencoded_list_terminator = internal global i32 0, align 4
@.str.72 = private unnamed_addr constant [7 x i8] c"%s: %s\00", align 1

; Function Attrs: null_pointer_is_valid sspstrong uwtable
define internal i32 @dissect_bencoded_int(ptr noundef %0, ptr noundef %1, ptr noundef %2, i32 noundef %3, ptr noundef %4, ptr noundef %5) #0 {
  %7 = alloca i32, align 4
  %8 = alloca ptr, align 8
  %9 = alloca ptr, align 8
  %10 = alloca ptr, align 8
  %11 = alloca i32, align 4
  %12 = alloca ptr, align 8
  %13 = alloca ptr, align 8
  %14 = alloca i32, align 4
  %15 = alloca i32, align 4
  %16 = alloca i32, align 4
  store ptr %0, ptr %8, align 8
  store ptr %1, ptr %9, align 8
  store ptr %2, ptr %10, align 8
  store i32 %3, ptr %11, align 4
  store ptr %4, ptr %12, align 8
  store ptr %5, ptr %13, align 8
  call void @llvm.lifetime.start.p0(i64 4, ptr %14) #6
  call void @llvm.lifetime.start.p0(i64 4, ptr %15) #6
  %17 = load ptr, ptr %8, align 8
  %18 = load i32, ptr %11, align 4
  %19 = call i32 @tvb_captured_length_remaining(ptr noundef %17, i32 noundef %18)
  store i32 %19, ptr %15, align 4
  %20 = load i32, ptr %15, align 4
  %21 = icmp ult i32 %20, 3
  br i1 %21, label %22, label %23

22:                                               ; preds = %6
  store i32 0, ptr %7, align 4
  store i32 1, ptr %16, align 4
  br label %87

23:                                               ; preds = %6
  %24 = load ptr, ptr %8, align 8
  %25 = load i32, ptr %11, align 4
  %26 = call zeroext i8 @tvb_get_uint8(ptr noundef %24, i32 noundef %25)
  %27 = zext i8 %26 to i32
  %28 = icmp ne i32 %27, 105
  br i1 %28, label %29, label %30

29:                                               ; preds = %23
  store i32 0, ptr %7, align 4
  store i32 1, ptr %16, align 4
  br label %87

30:                                               ; preds = %23
  %31 = load i32, ptr %11, align 4
  %32 = add i32 %31, 1
  store i32 %32, ptr %11, align 4
  %33 = load i32, ptr %15, align 4
  %34 = sub i32 %33, 1
  store i32 %34, ptr %15, align 4
  %35 = load i32, ptr %11, align 4
  store i32 %35, ptr %14, align 4
  br label %36

36:                                               ; preds = %48, %30
  %37 = load ptr, ptr %8, align 8
  %38 = load i32, ptr %11, align 4
  %39 = call zeroext i8 @tvb_get_uint8(ptr noundef %37, i32 noundef %38)
  %40 = zext i8 %39 to i32
  %41 = icmp ne i32 %40, 101
  br i1 %41, label %42, label %46

42:                                               ; preds = %36
  %43 = load i32, ptr %15, align 4
  %44 = add i32 %43, -1
  store i32 %44, ptr %15, align 4
  %45 = icmp ne i32 %44, 0
  br label %46

46:                                               ; preds = %42, %36
  %47 = phi i1 [ false, %36 ], [ %45, %42 ]
  br i1 %47, label %48, label %51

48:                                               ; preds = %46
  %49 = load i32, ptr %11, align 4
  %50 = add i32 %49, 1
  store i32 %50, ptr %11, align 4
  br label %36, !llvm.loop !12

51:                                               ; preds = %46
  %52 = load i32, ptr %15, align 4
  %53 = icmp eq i32 %52, 0
  br i1 %53, label %54, label %55

54:                                               ; preds = %51
  store i32 0, ptr %7, align 4
  store i32 1, ptr %16, align 4
  br label %87

55:                                               ; preds = %51
  %56 = load ptr, ptr %10, align 8
  %57 = load i32, ptr @hf_bencoded_list_terminator, align 4
  %58 = load ptr, ptr %8, align 8
  %59 = load i32, ptr %11, align 4
  %60 = call ptr @proto_tree_add_item(ptr noundef %56, i32 noundef %57, ptr noundef %58, i32 noundef %59, i32 noundef 1, i32 noundef 0)
  %61 = load ptr, ptr %9, align 8
  %62 = getelementptr inbounds nuw %struct._packet_info, ptr %61, i32 0, i32 51
  %63 = load ptr, ptr %62, align 8
  %64 = load ptr, ptr %8, align 8
  %65 = load i32, ptr %14, align 4
  %66 = load i32, ptr %11, align 4
  %67 = load i32, ptr %14, align 4
  %68 = sub i32 %66, %67
  %69 = call ptr @tvb_get_string_enc(ptr noundef %63, ptr noundef %64, i32 noundef %65, i32 noundef %68, i32 noundef 0)
  %70 = load ptr, ptr %12, align 8
  store ptr %69, ptr %70, align 8
  %71 = load ptr, ptr %10, align 8
  %72 = load i32, ptr @hf_bencoded_int, align 4
  %73 = load ptr, ptr %8, align 8
  %74 = load i32, ptr %14, align 4
  %75 = load i32, ptr %11, align 4
  %76 = load i32, ptr %14, align 4
  %77 = sub i32 %75, %76
  %78 = load ptr, ptr %12, align 8
  %79 = load ptr, ptr %78, align 8
  %80 = load ptr, ptr %13, align 8
  %81 = load ptr, ptr %12, align 8
  %82 = load ptr, ptr %81, align 8
  %83 = call ptr (ptr, i32, ptr, i32, i32, ptr, ptr, ...) @proto_tree_add_string_format(ptr noundef %71, i32 noundef %72, ptr noundef %73, i32 noundef %74, i32 noundef %77, ptr noundef %79, ptr noundef @.str.72, ptr noundef %80, ptr noundef %82)
  %84 = load i32, ptr %11, align 4
  %85 = add i32 %84, 1
  store i32 %85, ptr %11, align 4
  %86 = load i32, ptr %11, align 4
  store i32 %86, ptr %7, align 4
  store i32 1, ptr %16, align 4
  br label %87

87:                                               ; preds = %55, %54, %29, %22
  call void @llvm.lifetime.end.p0(i64 4, ptr %15) #6
  call void @llvm.lifetime.end.p0(i64 4, ptr %14) #6
  %88 = load i32, ptr %7, align 4
  ret i32 %88
}