; Function Attrs: null_pointer_is_valid sspstrong uwtable
define internal fastcc noundef i32 @dissect_bencoded_int(ptr noundef %0, ptr noundef readonly captures(none) %1, ptr noundef %2, i32 noundef %3, ptr noundef writeonly captures(none) %4, ptr noundef %5) unnamed_addr #0 {
  %7 = tail call i32 @tvb_captured_length_remaining(ptr noundef %0, i32 noundef %3)
  %8 = icmp ult i32 %7, 3
  br i1 %8, label %.critedge.thread, label %9

9:                                                ; preds = %6
  %10 = tail call zeroext i8 @tvb_get_uint8(ptr noundef %0, i32 noundef %3)
  %.not = icmp eq i8 %10, 105
  br i1 %.not, label %11, label %.critedge.thread

11:                                               ; preds = %9
  %12 = add i32 %3, 1
  %13 = tail call zeroext i8 @tvb_get_uint8(ptr noundef %0, i32 noundef %12)
  %.not3741 = icmp eq i8 %13, 101
  br i1 %.not3741, label %.critedge, label %.lr.ph.preheader

.lr.ph.preheader:                                 ; preds = %11
  %14 = add i32 %7, -1
  br label %.lr.ph

.lr.ph:                                           ; preds = %.lr.ph.preheader, %16
  %.043 = phi i32 [ %15, %16 ], [ %14, %.lr.ph.preheader ]
  %.03342 = phi i32 [ %17, %16 ], [ %12, %.lr.ph.preheader ]
  %15 = add i32 %.043, -1
  %.not38 = icmp eq i32 %15, 0
  br i1 %.not38, label %.critedge.thread, label %16

16:                                               ; preds = %.lr.ph
  %17 = add i32 %.03342, 1
  %18 = tail call zeroext i8 @tvb_get_uint8(ptr noundef %0, i32 noundef %17)
  %.not37 = icmp eq i8 %18, 101
  br i1 %.not37, label %.critedge, label %.lr.ph, !llvm.loop !11

.critedge:                                        ; preds = %16, %11
  %.033.lcssa = phi i32 [ %12, %11 ], [ %17, %16 ]
  %19 = load i32, ptr @hf_bencoded_list_terminator, align 4
  %20 = tail call ptr @proto_tree_add_item(ptr noundef %2, i32 noundef %19, ptr noundef %0, i32 noundef %.033.lcssa, i32 noundef 1, i32 noundef 0)
  %21 = getelementptr inbounds nuw i8, ptr %1, i64 408
  %22 = load ptr, ptr %21, align 8
  %23 = sub i32 %.033.lcssa, %12
  %24 = tail call ptr @tvb_get_string_enc(ptr noundef %22, ptr noundef %0, i32 noundef %12, i32 noundef %23, i32 noundef 0)
  store ptr %24, ptr %4, align 8
  %25 = load i32, ptr @hf_bencoded_int, align 4
  %26 = tail call ptr (ptr, i32, ptr, i32, i32, ptr, ptr, ...) @proto_tree_add_string_format(ptr noundef %2, i32 noundef %25, ptr noundef %0, i32 noundef %12, i32 noundef %23, ptr noundef %24, ptr noundef nonnull @.str.72, ptr noundef %5, ptr noundef %24)
  %27 = add i32 %.033.lcssa, 1
  br label %.critedge.thread

.critedge.thread:                                 ; preds = %.lr.ph, %9, %6, %.critedge
  %.032 = phi i32 [ %27, %.critedge ], [ 0, %6 ], [ 0, %9 ], [ 0, %.lr.ph ]
  ret i32 %.032
}